target datalayout = "e-m:e-p270:32:32-p271:32:32-p272:64:64-i64:64-i128:128-f80:128-n8:16:32:64-S128"
target triple = "x86_64-pc-linux-gnu"

%"struct.cv::utils::trace::details::Region::LocationStaticStorage" = type { ptr, ptr, ptr, i32, i32 }
%"class.cv::utils::trace::details::Region" = type <{ ptr, i32, [4 x i8] }>
%"class.cv::TermCriteria" = type { i32, i32, double }
%"struct.cv::ml::RTreeParams" = type { i8, i32, %"class.cv::TermCriteria" }

@_ZZN2cv2ml11RTreeParamsC1EbiNS_12TermCriteriaEE24__cv_trace_location_fn62 = internal constant %"struct.cv::utils::trace::details::Region::LocationStaticStorage" { ptr @_ZZN2cv2ml11RTreeParamsC1EbiNS_12TermCriteriaEE30__cv_trace_location_extra_fn62, ptr @.str.2, ptr @.str.1, i32 62, i32 1 }, align 8

; Function Attrs: inlinehint mustprogress nounwind uwtable
define linkonce_odr hidden void @_ZN2cv5utils5trace7details6RegionD2Ev(ptr noundef nonnull align 8 dereferenceable(12) %0) unnamed_addr #5 comdat align 2 personality ptr @__gxx_personality_v0 {
  %2 = alloca ptr, align 8
  store ptr %0, ptr %2, align 8, !tbaa !23
  %3 = load ptr, ptr %2, align 8
  %4 = getelementptr inbounds nuw %"class.cv::utils::trace::details::Region", ptr %3, i32 0, i32 1
  %5 = load i32, ptr %4, align 8, !tbaa !25
  %6 = icmp ne i32 %5, 0
  br i1 %6, label %7, label %9

7:                                                ; preds = %1
  invoke void @_ZN2cv5utils5trace7details6Region7destroyEv(ptr noundef nonnull align 8 dereferenceable(12) %3)
          to label %8 unwind label %10

8:                                                ; preds = %7
  br label %9

9:                                                ; preds = %8, %1
  ret void

10:                                               ; preds = %7
  %11 = landingpad { ptr, i32 }
          catch ptr null
  %12 = extractvalue { ptr, i32 } %11, 0
  call void @__clang_call_terminate(ptr %12) #23
  unreachable
}

; Function Attrs: inlinehint mustprogress nounwind uwtable
define linkonce_odr hidden void @_ZN2cv12TermCriteriaC2Ev(ptr noundef nonnull align 8 dereferenceable(16) %0) unnamed_addr #5 comdat align 2 {
  %2 = alloca ptr, align 8
  store ptr %0, ptr %2, align 8, !tbaa !18
  %3 = load ptr, ptr %2, align 8
  %4 = getelementptr inbounds nuw %"class.cv::TermCriteria", ptr %3, i32 0, i32 0
  store i32 0, ptr %4, align 8, !tbaa !20
  %5 = getelementptr inbounds nuw %"class.cv::TermCriteria", ptr %3, i32 0, i32 1
  store i32 0, ptr %5, align 4, !tbaa !21
  %6 = getelementptr inbounds nuw %"class.cv::TermCriteria", ptr %3, i32 0, i32 2
  store double 0.000000e+00, ptr %6, align 8, !tbaa !22
  ret void
}

; Function Attrs: mustprogress uwtable
define hidden void @_ZN2cv2ml11RTreeParamsC2EbiNS_12TermCriteriaE(ptr noundef nonnull align 8 dereferenceable(24) %0, i1 noundef zeroext %1, i32 noundef %2, i64 %3, double %4) unnamed_addr #4 align 2 {
  %6 = alloca %"class.cv::TermCriteria", align 8
  %7 = alloca ptr, align 8
  %8 = alloca i8, align 1
  %9 = alloca i32, align 4
  %10 = alloca %"class.cv::utils::trace::details::Region", align 8
  %11 = getelementptr inbounds nuw { i64, double }, ptr %6, i32 0, i32 0
  store i64 %3, ptr %11, align 8
  %12 = getelementptr inbounds nuw { i64, double }, ptr %6, i32 0, i32 1
  store double %4, ptr %12, align 8
  store ptr %0, ptr %7, align 8, !tbaa !3
  %13 = zext i1 %1 to i8
  store i8 %13, ptr %8, align 1, !tbaa !28
  store i32 %2, ptr %9, align 4, !tbaa !16
  %14 = load ptr, ptr %7, align 8
  %15 = getelementptr inbounds nuw %"struct.cv::ml::RTreeParams", ptr %14, i32 0, i32 2
  call void @_ZN2cv12TermCriteriaC2Ev(ptr noundef nonnull align 8 dereferenceable(16) %15)
  call void @llvm.lifetime.start.p0(i64 16, ptr %10) #3
  call void @_ZN2cv5utils5trace7details6RegionC1ERKNS3_21LocationStaticStorageE(ptr noundef nonnull align 8 dereferenceable(12) %10, ptr noundef nonnull align 8 dereferenceable(32) @_ZZN2cv2ml11RTreeParamsC1EbiNS_12TermCriteriaEE24__cv_trace_location_fn62)
  %16 = load i8, ptr %8, align 1, !tbaa !28, !range !29, !noundef !30
  %17 = trunc i8 %16 to i1
  %18 = getelementptr inbounds nuw %"struct.cv::ml::RTreeParams", ptr %14, i32 0, i32 0
  %19 = zext i1 %17 to i8
  store i8 %19, ptr %18, align 8, !tbaa !8
  %20 = load i32, ptr %9, align 4, !tbaa !16
  %21 = getelementptr inbounds nuw %"struct.cv::ml::RTreeParams", ptr %14, i32 0, i32 1
  store i32 %20, ptr %21, align 4, !tbaa !14
  %22 = getelementptr inbounds nuw %"struct.cv::ml::RTreeParams", ptr %14, i32 0, i32 2
  call void @llvm.memcpy.p0.p0.i64(ptr align 8 %22, ptr align 8 %6, i64 16, i1 false), !tbaa.struct !15
  call void @_ZN2cv5utils5trace7details6RegionD2Ev(ptr noundef nonnull align 8 dereferenceable(12) %10) #3
  call void @llvm.lifetime.end.p0(i64 16, ptr %10) #3
  ret void
}